; Function Attrs: mustprogress uwtable
define void @_ZN4toml2v35tableC2EPKNS0_4impl15table_init_pairES5_(ptr noundef nonnull align 8 dereferenceable(89) initializes((0, 40), (48, 52), (56, 64)) %0, ptr noundef %1, ptr noundef readnone captures(address) %2) unnamed_addr #0 align 2 personality ptr @__gxx_personality_v0 {
  %4 = getelementptr inbounds nuw i8, ptr %0, i64 8
  tail call void @llvm.memset.p0.i64(ptr noundef nonnull align 8 dereferenceable(32) %4, i8 0, i64 32, i1 false)
  store ptr getelementptr inbounds nuw inrange(-16, 288) (i8, ptr @_ZTVN4toml2v35tableE, i64 16), ptr %0, align 8, !tbaa !44
  %5 = getelementptr inbounds nuw i8, ptr %0, i64 40
  %6 = getelementptr inbounds nuw i8, ptr %0, i64 48
  store i32 0, ptr %6, align 8, !tbaa !280
  %7 = getelementptr inbounds nuw i8, ptr %0, i64 56
  store ptr null, ptr %7, align 8, !tbaa !281
  %8 = getelementptr inbounds nuw i8, ptr %0, i64 64
  store ptr %6, ptr %8, align 8, !tbaa !277
  %9 = getelementptr inbounds nuw i8, ptr %0, i64 72
  store ptr %6, ptr %9, align 8, !tbaa !282
  %10 = getelementptr inbounds nuw i8, ptr %0, i64 80
  store i64 0, ptr %10, align 8, !tbaa !160
  %11 = getelementptr inbounds nuw i8, ptr %0, i64 88
  store i8 0, ptr %11, align 8, !tbaa !122
  %12 = icmp ne ptr %1, null
  tail call void @llvm.assume(i1 %12)
  %13 = icmp ne ptr %2, null
  tail call void @llvm.assume(i1 %13)
  %14 = icmp ule ptr %1, %2
  tail call void @llvm.assume(i1 %14)
  %15 = icmp eq ptr %1, %2
  br i1 %15, label %.loopexit, label %.preheader, !prof !146

.preheader:                                       ; preds = %3, %20
  %.016 = phi ptr [ %21, %20 ], [ %1, %3 ]
  %16 = getelementptr inbounds nuw i8, ptr %.016, i64 64
  %17 = load ptr, ptr %16, align 8, !tbaa !178
  %.not15 = icmp eq ptr %17, null
  br i1 %.not15, label %20, label %18

18:                                               ; preds = %.preheader
  %19 = invoke { ptr, i8 } @_ZNSt3mapIN4toml2v33keyESt10unique_ptrINS1_4nodeESt14default_deleteIS4_EESt4lessIvESaISt4pairIKS2_S7_EEE16insert_or_assignIS7_EESA_ISt17_Rb_tree_iteratorISC_EbEOS2_OT_(ptr noundef nonnull align 8 dereferenceable(48) %5, ptr noundef nonnull align 8 dereferenceable(64) %.016, ptr noundef nonnull align 8 dereferenceable(8) %16)
          to label %20 unwind label %22

20:                                               ; preds = %18, %.preheader
  %21 = getelementptr inbounds nuw i8, ptr %.016, i64 72
  %.not = icmp eq ptr %21, %2
  br i1 %.not, label %.loopexit, label %.preheader, !llvm.loop !283

22:                                               ; preds = %18
  %23 = landingpad { ptr, i32 }
          cleanup
  tail call void @_ZNSt3mapIN4toml2v33keyESt10unique_ptrINS1_4nodeESt14default_deleteIS4_EESt4lessIvESaISt4pairIKS2_S7_EEED2Ev(ptr noundef nonnull align 8 dereferenceable(48) %5) #50
  tail call void @_ZN4toml2v34nodeD2Ev(ptr noundef nonnull align 8 dereferenceable(40) %0) #50
  resume { ptr, i32 } %23

.loopexit:                                        ; preds = %20, %3
  ret void
}